ccopy_reg
_reconstructor
p0
(cgoogle.oauth2.credentials
Credentials
p1
c__builtin__
object
p2
Ntp3
Rp4
(dp5
S'_quota_project_id'
p6
NsS'_token_uri'
p7
Vhttps://oauth2.googleapis.com/token
p8
sS'_client_secret'
p9
VhK2Waos3G4SGXEQIFUi2SL8i
p10
sS'_id_token'
p11
NsS'token'
p12
Vya29.a0AfH6SMAooNlRcGRt3MSQbrTX_mValpG1qlElOWqDFJDrGw6ZITYKgtZ0z_V-bdDFtW9lJeObmWrSHEGUrTNqK7be2v57UsZQT2kKO0fRD3HkfWi0Ch_coJnr1QRvnlqFADVeRcNh2oofqvul2cARorn7tUEQ82VcLSZ1
p13
sS'_refresh_token'
p14
V1//0e1G8tkHr9JtsCgYIARAAGA4SNwF-L9IrMoXaO4uIjzQYwv6uERK-7Ij4qAOcxAUDkd7LauE2zr59qV1-b2os-jTGa9um9Hw3c90
p15
sS'_scopes'
p16
(lp17
S'https://www.googleapis.com/auth/gmail.readonly'
p18
asS'_client_id'
p19
V255413961462-744mavoi5ken92lbc72tnuuu9c7457l9.apps.googleusercontent.com
p20
sS'expiry'
p21
cdatetime
datetime
p22
(S'\x07\xe4\x08\n\x08\x1d0\x04\x03\xe2'
p23
tp24
Rp25
sb.